Certificate:
    Data:
        Version: 3 (0x2)
        Serial Number: 2 (0x2)
        Signature Algorithm: sha1WithRSAEncryption
        Issuer: C=RU, ST=Samara, L=Samara, O=Integra-S, CN=SovietArmy180/emailAddress=me@integra-s.com
        Validity
            Not Before: Oct 17 12:02:41 2014 GMT
            Not After : Oct 14 12:02:41 2024 GMT
        Subject: C=RU, ST=Samara, L=Samara, O=Integra-S, CN=olecsys/emailAddress=me@integra-s.com
        Subject Public Key Info:
            Public Key Algorithm: rsaEncryption
            RSA Public Key: (1024 bit)
                Modulus (1024 bit):
                    00:ed:1d:dd:d7:9d:3a:13:63:8c:f3:2b:1c:31:35:
                    db:d8:e4:48:85:be:f6:55:4f:63:9a:5c:6b:79:e9:
                    02:a1:d9:e1:05:3f:34:39:e7:f5:78:a4:8e:a3:c0:
                    c2:e8:44:29:34:49:0d:5c:b7:b4:c6:6f:df:35:b2:
                    d6:d7:7e:fd:ca:b4:2b:17:c1:10:ca:1a:32:4c:02:
                    aa:99:aa:66:47:c8:bf:f6:3c:c9:4c:3f:35:19:af:
                    6d:12:d6:e0:82:5f:5d:a8:69:05:e5:71:10:db:30:
                    d7:4a:9c:ee:b1:af:fc:39:fb:30:55:d0:4f:10:1c:
                    a2:74:1a:5a:c4:d3:ee:f9:75
                Exponent: 65537 (0x10001)
        X509v3 extensions:
            X509v3 Basic Constraints: 
                CA:FALSE
            Netscape Comment: 
                Easy-RSA Generated Certificate
            X509v3 Subject Key Identifier: 
                66:42:9D:03:51:31:C9:60:25:39:AB:9A:4F:2A:D6:8E:54:D9:9E:07
            X509v3 Authority Key Identifier: 
                keyid:73:77:22:4E:7A:89:0D:B2:B0:CF:0F:5B:F9:16:B8:76:F8:7D:77:61
                DirName:/C=RU/ST=Samara/L=Samara/O=Integra-S/CN=SovietArmy180/emailAddress=me@integra-s.com
                serial:DC:21:2C:B9:A3:97:D1:F2

            X509v3 Extended Key Usage: 
                TLS Web Client Authentication
            X509v3 Key Usage: 
                Digital Signature
    Signature Algorithm: sha1WithRSAEncryption
        1e:7e:2d:d9:12:b1:db:77:ef:33:ea:b7:40:8d:40:0b:5e:1d:
        2c:78:8f:e3:28:b4:ed:08:9e:cd:e0:d7:c0:92:a2:fd:c9:1d:
        c6:56:3a:f3:76:72:d3:df:63:4d:bf:50:ca:76:1b:ef:d3:ac:
        c9:b8:14:7a:cb:3e:fc:cc:8b:9e:c5:6b:5c:9d:f6:22:db:a6:
        32:96:61:1a:ae:d1:31:7a:4f:99:ba:5b:d5:19:d1:df:60:ad:
        d8:0d:9c:47:e4:bd:8b:86:56:7b:f7:34:03:ea:a3:5c:66:70:
        e1:92:f4:80:34:86:f9:3c:11:8d:3b:6e:76:66:8e:79:97:06:
        a5:53
-----BEGIN CERTIFICATE-----
MIIDmzCCAwSgAwIBAgIBAjANBgkqhkiG9w0BAQUFADB8MQswCQYDVQQGEwJSVTEP
MA0GA1UECBMGU2FtYXJhMQ8wDQYDVQQHEwZTYW1hcmExEjAQBgNVBAoTCUludGVn
cmEtUzEWMBQGA1UEAxMNU292aWV0QXJteTE4MDEfMB0GCSqGSIb3DQEJARYQbWVA
aW50ZWdyYS1zLmNvbTAeFw0xNDEwMTcxMjAyNDFaFw0yNDEwMTQxMjAyNDFaMHYx
CzAJBgNVBAYTAlJVMQ8wDQYDVQQIEwZTYW1hcmExDzANBgNVBAcTBlNhbWFyYTES
MBAGA1UEChMJSW50ZWdyYS1TMRAwDgYDVQQDEwdvbGVjc3lzMR8wHQYJKoZIhvcN
AQkBFhBtZUBpbnRlZ3JhLXMuY29tMIGfMA0GCSqGSIb3DQEBAQUAA4GNADCBiQKB
gQDtHd3XnToTY4zzKxwxNdvY5EiFvvZVT2OaXGt56QKh2eEFPzQ55/V4pI6jwMLo
RCk0SQ1ct7TGb981stbXfv3KtCsXwRDKGjJMAqqZqmZHyL/2PMlMPzUZr20S1uCC
X12oaQXlcRDbMNdKnO6xr/w5+zBV0E8QHKJ0GlrE0+75dQIDAQABo4IBMTCCAS0w
CQYDVR0TBAIwADAtBglghkgBhvhCAQ0EIBYeRWFzeS1SU0EgR2VuZXJhdGVkIENl
cnRpZmljYXRlMB0GA1UdDgQWBBRmQp0DUTHJYCU5q5pPKtaOVNmeBzCBrwYDVR0j
BIGnMIGkgBRzdyJOeokNsrDPD1v5Frh2+H13YaGBgKR+MHwxCzAJBgNVBAYTAlJV
MQ8wDQYDVQQIEwZTYW1hcmExDzANBgNVBAcTBlNhbWFyYTESMBAGA1UEChMJSW50
ZWdyYS1TMRYwFAYDVQQDEw1Tb3ZpZXRBcm15MTgwMR8wHQYJKoZIhvcNAQkBFhBt
ZUBpbnRlZ3JhLXMuY29tggkA3CEsuaOX0fIwEwYDVR0lBAwwCgYIKwYBBQUHAwIw
CwYDVR0PBAQDAgeAMA0GCSqGSIb3DQEBBQUAA4GBAB5+LdkSsdt37zPqt0CNQAte
HSx4j+MotO0Ins3g18CSov3JHcZWOvN2ctPfY02/UMp2G+/TrMm4FHrLPvzMi57F
a1yd9iLbpjKWYRqu0TF6T5m6W9UZ0d9grdgNnEfkvYuGVnv3NAPqo1xmcOGS9IA0
hvk8EY07bnZmjnmXBqVT
-----END CERTIFICATE-----
