Certificate:
    Data:
        Version: 3 (0x2)
        Serial Number: 1 (0x1)
        Signature Algorithm: sha1WithRSAEncryption
        Issuer: C=RU, ST=Samara, L=Samara, O=Integra-S, CN=SovietArmy180/emailAddress=me@integra-s.com
        Validity
            Not Before: Oct 17 12:00:03 2014 GMT
            Not After : Oct 14 12:00:03 2024 GMT
        Subject: C=RU, ST=Samara, L=Samara, O=Integra-S, CN=integravideo/emailAddress=me@integra-s.com
        Subject Public Key Info:
            Public Key Algorithm: rsaEncryption
            RSA Public Key: (1024 bit)
                Modulus (1024 bit):
                    00:ab:f6:9f:f7:5b:c6:71:63:ae:fd:e6:d4:20:4f:
                    1f:20:f1:c1:08:22:6d:1b:cf:23:28:95:d8:88:bd:
                    5a:59:8a:75:e3:89:78:ec:b4:b3:c3:4b:42:15:6d:
                    1b:cb:63:2e:1a:17:55:56:a6:d6:57:b7:2c:2a:82:
                    cd:a2:bb:fb:38:df:d2:f4:b5:90:ff:9c:02:d1:98:
                    a0:e2:52:fa:d2:36:84:53:f8:2d:af:3a:31:d1:69:
                    93:9b:be:1e:a7:bc:be:86:5b:79:18:13:bb:93:40:
                    cc:a5:dc:92:56:22:73:c2:45:3b:20:a8:09:1d:d8:
                    4d:a9:88:fb:83:5f:9c:3d:dd
                Exponent: 65537 (0x10001)
        X509v3 extensions:
            X509v3 Basic Constraints: 
                CA:FALSE
            Netscape Cert Type: 
                SSL Server
            Netscape Comment: 
                Easy-RSA Generated Server Certificate
            X509v3 Subject Key Identifier: 
                36:BA:EE:FB:49:24:5B:D7:60:F1:DA:48:F8:01:D3:C9:68:38:97:17
            X509v3 Authority Key Identifier: 
                keyid:73:77:22:4E:7A:89:0D:B2:B0:CF:0F:5B:F9:16:B8:76:F8:7D:77:61
                DirName:/C=RU/ST=Samara/L=Samara/O=Integra-S/CN=SovietArmy180/emailAddress=me@integra-s.com
                serial:DC:21:2C:B9:A3:97:D1:F2

            X509v3 Extended Key Usage: 
                TLS Web Server Authentication
            X509v3 Key Usage: 
                Digital Signature, Key Encipherment
    Signature Algorithm: sha1WithRSAEncryption
        60:75:95:74:4b:cf:dc:b3:d9:9a:2a:f9:ab:7a:13:16:2e:36:
        7b:8a:ff:99:de:eb:6f:29:ca:8b:68:35:9a:15:8b:38:9d:54:
        36:b5:8b:f1:fa:a1:26:b5:e0:31:12:c9:c3:76:f4:c5:c9:97:
        6b:2e:ba:d5:d0:47:2f:15:f3:3b:75:e5:79:65:33:3c:08:eb:
        45:ff:63:b9:17:5b:e8:7b:5e:92:1a:2e:1f:43:7e:a6:0e:1b:
        3c:41:c4:fe:dd:74:d8:87:7b:05:90:f8:64:03:c9:51:8f:21:
        c3:10:24:20:23:52:ec:10:fb:f7:e3:55:28:38:6f:a8:a6:2e:
        c2:f1
-----BEGIN CERTIFICATE-----
MIIDujCCAyOgAwIBAgIBATANBgkqhkiG9w0BAQUFADB8MQswCQYDVQQGEwJSVTEP
MA0GA1UECBMGU2FtYXJhMQ8wDQYDVQQHEwZTYW1hcmExEjAQBgNVBAoTCUludGVn
cmEtUzEWMBQGA1UEAxMNU292aWV0QXJteTE4MDEfMB0GCSqGSIb3DQEJARYQbWVA
aW50ZWdyYS1zLmNvbTAeFw0xNDEwMTcxMjAwMDNaFw0yNDEwMTQxMjAwMDNaMHsx
CzAJBgNVBAYTAlJVMQ8wDQYDVQQIEwZTYW1hcmExDzANBgNVBAcTBlNhbWFyYTES
MBAGA1UEChMJSW50ZWdyYS1TMRUwEwYDVQQDEwxpbnRlZ3JhdmlkZW8xHzAdBgkq
hkiG9w0BCQEWEG1lQGludGVncmEtcy5jb20wgZ8wDQYJKoZIhvcNAQEBBQADgY0A
MIGJAoGBAKv2n/dbxnFjrv3m1CBPHyDxwQgibRvPIyiV2Ii9WlmKdeOJeOy0s8NL
QhVtG8tjLhoXVVam1le3LCqCzaK7+zjf0vS1kP+cAtGYoOJS+tI2hFP4La86MdFp
k5u+Hqe8voZbeRgTu5NAzKXcklYic8JFOyCoCR3YTamI+4NfnD3dAgMBAAGjggFL
MIIBRzAJBgNVHRMEAjAAMBEGCWCGSAGG+EIBAQQEAwIGQDA0BglghkgBhvhCAQ0E
JxYlRWFzeS1SU0EgR2VuZXJhdGVkIFNlcnZlciBDZXJ0aWZpY2F0ZTAdBgNVHQ4E
FgQUNrru+0kkW9dg8dpI+AHTyWg4lxcwga8GA1UdIwSBpzCBpIAUc3ciTnqJDbKw
zw9b+Ra4dvh9d2GhgYCkfjB8MQswCQYDVQQGEwJSVTEPMA0GA1UECBMGU2FtYXJh
MQ8wDQYDVQQHEwZTYW1hcmExEjAQBgNVBAoTCUludGVncmEtUzEWMBQGA1UEAxMN
U292aWV0QXJteTE4MDEfMB0GCSqGSIb3DQEJARYQbWVAaW50ZWdyYS1zLmNvbYIJ
ANwhLLmjl9HyMBMGA1UdJQQMMAoGCCsGAQUFBwMBMAsGA1UdDwQEAwIFoDANBgkq
hkiG9w0BAQUFAAOBgQBgdZV0S8/cs9maKvmrehMWLjZ7iv+Z3utvKcqLaDWaFYs4
nVQ2tYvx+qEmteAxEsnDdvTFyZdrLrrV0EcvFfM7deV5ZTM8COtF/2O5F1voe16S
Gi4fQ36mDhs8QcT+3XTYh3sFkPhkA8lRjyHDECQgI1LsEPv341UoOG+opi7C8Q==
-----END CERTIFICATE-----
