Certificate:
    Data:
        Version: 3 (0x2)
        Serial Number: 3 (0x3)
        Signature Algorithm: sha1WithRSAEncryption
        Issuer: C=RU, ST=Samara, L=Samara, O=Integra-S, CN=SovietArmy180/emailAddress=me@integra-s.com
        Validity
            Not Before: Mar 27 07:00:13 2015 GMT
            Not After : Mar 24 07:00:13 2025 GMT
        Subject: C=RU, ST=Samara, L=Samara, O=Integra-S, CN=stara_zagora/emailAddress=me@integra-s.com
        Subject Public Key Info:
            Public Key Algorithm: rsaEncryption
            RSA Public Key: (1024 bit)
                Modulus (1024 bit):
                    00:f9:9c:aa:94:c9:5e:e2:53:92:86:35:38:ff:c2:
                    7c:4c:52:ac:84:6e:19:e7:23:b8:b5:b0:a2:69:0d:
                    6b:09:a3:a2:03:34:a1:1f:be:8e:fe:5a:68:cd:e7:
                    06:08:64:35:f7:fe:4e:85:70:06:f2:ce:95:82:a2:
                    d8:36:ff:fc:3a:38:d6:1d:66:ba:8b:23:c2:ec:b2:
                    49:08:46:43:12:f7:d4:a2:c3:44:fb:d0:14:01:5b:
                    42:c3:fa:cc:e7:74:18:e5:82:56:7a:1e:50:c8:52:
                    5b:31:58:e9:a8:08:66:3a:78:49:31:69:2b:9d:4c:
                    fe:7e:02:e9:b9:9d:cb:a8:65
                Exponent: 65537 (0x10001)
        X509v3 extensions:
            X509v3 Basic Constraints: 
                CA:FALSE
            Netscape Comment: 
                Easy-RSA Generated Certificate
            X509v3 Subject Key Identifier: 
                B7:21:C8:A5:77:CD:1A:C0:04:32:A0:29:25:39:66:D8:83:D4:68:F7
            X509v3 Authority Key Identifier: 
                keyid:73:77:22:4E:7A:89:0D:B2:B0:CF:0F:5B:F9:16:B8:76:F8:7D:77:61
                DirName:/C=RU/ST=Samara/L=Samara/O=Integra-S/CN=SovietArmy180/emailAddress=me@integra-s.com
                serial:DC:21:2C:B9:A3:97:D1:F2

            X509v3 Extended Key Usage: 
                TLS Web Client Authentication
            X509v3 Key Usage: 
                Digital Signature
    Signature Algorithm: sha1WithRSAEncryption
        40:b9:5d:1b:a3:b8:b6:83:d7:14:29:37:3a:29:d0:30:a3:4a:
        98:0f:06:e3:68:94:ee:ec:e5:d8:df:85:a4:81:40:43:d3:b0:
        8f:a0:f9:6b:c5:6a:86:01:92:3f:70:dc:44:66:5c:b9:26:f0:
        e7:00:31:2d:3b:ad:fe:0f:47:2d:b8:4f:ab:59:45:62:78:b1:
        99:61:ec:07:41:28:09:1a:44:64:92:65:fd:31:96:5f:74:2d:
        1b:1f:cb:2a:8e:98:e5:49:f9:f2:19:78:99:43:19:27:5c:6c:
        d4:48:34:6c:29:ff:95:34:13:f5:3e:0e:30:ae:bf:58:64:cd:
        4b:65
-----BEGIN CERTIFICATE-----
MIIDoDCCAwmgAwIBAgIBAzANBgkqhkiG9w0BAQUFADB8MQswCQYDVQQGEwJSVTEP
MA0GA1UECBMGU2FtYXJhMQ8wDQYDVQQHEwZTYW1hcmExEjAQBgNVBAoTCUludGVn
cmEtUzEWMBQGA1UEAxMNU292aWV0QXJteTE4MDEfMB0GCSqGSIb3DQEJARYQbWVA
aW50ZWdyYS1zLmNvbTAeFw0xNTAzMjcwNzAwMTNaFw0yNTAzMjQwNzAwMTNaMHsx
CzAJBgNVBAYTAlJVMQ8wDQYDVQQIEwZTYW1hcmExDzANBgNVBAcTBlNhbWFyYTES
MBAGA1UEChMJSW50ZWdyYS1TMRUwEwYDVQQDFAxzdGFyYV96YWdvcmExHzAdBgkq
hkiG9w0BCQEWEG1lQGludGVncmEtcy5jb20wgZ8wDQYJKoZIhvcNAQEBBQADgY0A
MIGJAoGBAPmcqpTJXuJTkoY1OP/CfExSrIRuGecjuLWwomkNawmjogM0oR++jv5a
aM3nBghkNff+ToVwBvLOlYKi2Db//Do41h1muosjwuyySQhGQxL31KLDRPvQFAFb
QsP6zOd0GOWCVnoeUMhSWzFY6agIZjp4STFpK51M/n4C6bmdy6hlAgMBAAGjggEx
MIIBLTAJBgNVHRMEAjAAMC0GCWCGSAGG+EIBDQQgFh5FYXN5LVJTQSBHZW5lcmF0
ZWQgQ2VydGlmaWNhdGUwHQYDVR0OBBYEFLchyKV3zRrABDKgKSU5ZtiD1Gj3MIGv
BgNVHSMEgacwgaSAFHN3Ik56iQ2ysM8PW/kWuHb4fXdhoYGApH4wfDELMAkGA1UE
BhMCUlUxDzANBgNVBAgTBlNhbWFyYTEPMA0GA1UEBxMGU2FtYXJhMRIwEAYDVQQK
EwlJbnRlZ3JhLVMxFjAUBgNVBAMTDVNvdmlldEFybXkxODAxHzAdBgkqhkiG9w0B
CQEWEG1lQGludGVncmEtcy5jb22CCQDcISy5o5fR8jATBgNVHSUEDDAKBggrBgEF
BQcDAjALBgNVHQ8EBAMCB4AwDQYJKoZIhvcNAQEFBQADgYEAQLldG6O4toPXFCk3
OinQMKNKmA8G42iU7uzl2N+FpIFAQ9Owj6D5a8VqhgGSP3DcRGZcuSbw5wAxLTut
/g9HLbhPq1lFYnixmWHsB0EoCRpEZJJl/TGWX3QtGx/LKo6Y5Un58hl4mUMZJ1xs
1Eg0bCn/lTQT9T4OMK6/WGTNS2U=
-----END CERTIFICATE-----
